; Function Attrs: inlinehint mustprogress nounwind willreturn uwtable
define internal fastcc void @Gia_ObjSetCoLevel(ptr noundef readonly captures(none) %0, ptr noundef %1) unnamed_addr #7 {
  %3 = load i64, ptr %1, align 4
  %4 = and i64 %3, 536870911
  %5 = sub nsw i64 0, %4
  %6 = getelementptr inbounds %struct.Gia_Obj_t_, ptr %1, i64 %5
  %7 = getelementptr i8, ptr %0, i64 32
  %.val = load ptr, ptr %7, align 8, !tbaa !39
  %8 = getelementptr i8, ptr %0, i64 160
  %.val4 = load ptr, ptr %8, align 8, !tbaa !78
  %9 = ptrtoint ptr %6 to i64
  %10 = ptrtoint ptr %.val to i64
  %11 = sub i64 %9, %10
  %12 = sdiv exact i64 %11, 12
  %13 = trunc i64 %12 to i32
  %14 = add nsw i32 %13, 1
  %15 = getelementptr inbounds nuw i8, ptr %.val4, i64 4
  %16 = load i32, ptr %15, align 4, !tbaa !29
  %.not.i.not.i.i.i = icmp sgt i32 %16, %13
  br i1 %.not.i.not.i.i.i, label %Gia_ObjLevel.exit, label %17

17:                                               ; preds = %2
  %18 = load i32, ptr %.val4, align 8, !tbaa !55
  %19 = shl nsw i32 %18, 1
  %.not.i.i.i = icmp sgt i32 %19, %13
  %.not.i.i.not.i.i.i = icmp sgt i32 %18, %13
  br i1 %.not.i.i.i, label %32, label %20

20:                                               ; preds = %17
  br i1 %.not.i.i.not.i.i.i, label %Vec_IntGrow.exit.i.i.i.i, label %21

21:                                               ; preds = %20
  %22 = getelementptr inbounds nuw i8, ptr %.val4, i64 8
  %23 = load ptr, ptr %22, align 8, !tbaa !32
  %.not9.i.i.i.i.i = icmp eq ptr %23, null
  %24 = sext i32 %14 to i64
  %25 = shl nsw i64 %24, 2
  br i1 %.not9.i.i.i.i.i, label %28, label %26

26:                                               ; preds = %21
  %27 = tail call ptr @realloc(ptr noundef nonnull %23, i64 noundef %25) #23
  br label %30

28:                                               ; preds = %21
  %29 = tail call noalias ptr @malloc(i64 noundef %25) #22
  br label %30

30:                                               ; preds = %28, %26
  %31 = phi ptr [ %27, %26 ], [ %29, %28 ]
  store ptr %31, ptr %22, align 8, !tbaa !32
  br label %Vec_IntGrow.exit.sink.split.i.i.i.i

32:                                               ; preds = %17
  br i1 %.not.i.i.not.i.i.i, label %Vec_IntGrow.exit.i.i.i.i, label %33

33:                                               ; preds = %32
  %34 = getelementptr inbounds nuw i8, ptr %.val4, i64 8
  %35 = load ptr, ptr %34, align 8, !tbaa !32
  %.not9.i21.i.i.i.i = icmp eq ptr %35, null
  %36 = sext i32 %19 to i64
  %37 = shl nsw i64 %36, 2
  br i1 %.not9.i21.i.i.i.i, label %40, label %38

38:                                               ; preds = %33
  %39 = tail call ptr @realloc(ptr noundef nonnull %35, i64 noundef %37) #23
  br label %42

40:                                               ; preds = %33
  %41 = tail call noalias ptr @malloc(i64 noundef %37) #22
  br label %42

42:                                               ; preds = %40, %38
  %43 = phi ptr [ %39, %38 ], [ %41, %40 ]
  store ptr %43, ptr %34, align 8, !tbaa !32
  br label %Vec_IntGrow.exit.sink.split.i.i.i.i

Vec_IntGrow.exit.sink.split.i.i.i.i:              ; preds = %42, %30
  %.sink.i.i.i.i = phi i32 [ %19, %42 ], [ %14, %30 ]
  store i32 %.sink.i.i.i.i, ptr %.val4, align 8, !tbaa !55
  %.pre.i.i.i = load i32, ptr %15, align 4, !tbaa !29
  br label %Vec_IntGrow.exit.i.i.i.i

Vec_IntGrow.exit.i.i.i.i:                         ; preds = %Vec_IntGrow.exit.sink.split.i.i.i.i, %32, %20
  %44 = phi i32 [ %.pre.i.i.i, %Vec_IntGrow.exit.sink.split.i.i.i.i ], [ %16, %32 ], [ %16, %20 ]
  %.not3.i.i.i = icmp sgt i32 %44, %13
  br i1 %.not3.i.i.i, label %._crit_edge.i.i.i.i, label %.lr.ph.i.i.i.i

.lr.ph.i.i.i.i:                                   ; preds = %Vec_IntGrow.exit.i.i.i.i
  %45 = getelementptr inbounds nuw i8, ptr %.val4, i64 8
  %46 = load ptr, ptr %45, align 8, !tbaa !32
  %47 = sext i32 %44 to i64
  %48 = shl nsw i64 %47, 2
  %scevgep.i.i.i.i = getelementptr i8, ptr %46, i64 %48
  %49 = sub i32 %13, %44
  %50 = zext i32 %49 to i64
  %51 = shl nuw nsw i64 %50, 2
  %52 = add nuw nsw i64 %51, 4
  tail call void @llvm.memset.p0.i64(ptr noundef nonnull align 4 dereferenceable(1) %scevgep.i.i.i.i, i8 0, i64 %52, i1 false), !tbaa !33
  br label %._crit_edge.i.i.i.i

._crit_edge.i.i.i.i:                              ; preds = %.lr.ph.i.i.i.i, %Vec_IntGrow.exit.i.i.i.i
  store i32 %14, ptr %15, align 4, !tbaa !29
  %.val5.pre = load ptr, ptr %7, align 8, !tbaa !39
  %.val6.pre = load ptr, ptr %8, align 8, !tbaa !78
  %.phi.trans.insert = getelementptr inbounds nuw i8, ptr %.val6.pre, i64 4
  %.pre = load i32, ptr %.phi.trans.insert, align 4, !tbaa !29
  %.pre23 = ptrtoint ptr %.val5.pre to i64
  br label %Gia_ObjLevel.exit

Gia_ObjLevel.exit:                                ; preds = %2, %._crit_edge.i.i.i.i
  %.pre-phi = phi i64 [ %10, %2 ], [ %.pre23, %._crit_edge.i.i.i.i ]
  %53 = phi i32 [ %16, %2 ], [ %.pre, %._crit_edge.i.i.i.i ]
  %.val6 = phi ptr [ %.val4, %2 ], [ %.val6.pre, %._crit_edge.i.i.i.i ]
  %54 = getelementptr i8, ptr %.val4, i64 8
  %.val.i.i.i = load ptr, ptr %54, align 8, !tbaa !32
  %sext.i = shl i64 %12, 32
  %55 = ashr exact i64 %sext.i, 30
  %56 = getelementptr inbounds i8, ptr %.val.i.i.i, i64 %55
  %57 = load i32, ptr %56, align 4, !tbaa !33
  %58 = ptrtoint ptr %1 to i64
  %59 = sub i64 %58, %.pre-phi
  %60 = sdiv exact i64 %59, 12
  %61 = trunc i64 %60 to i32
  %62 = add nsw i32 %61, 1
  %63 = getelementptr inbounds nuw i8, ptr %.val6, i64 4
  %.not.i.not.i.i.i7 = icmp sgt i32 %53, %61
  br i1 %.not.i.not.i.i.i7, label %Gia_ObjSetLevel.exit, label %64

64:                                               ; preds = %Gia_ObjLevel.exit
  %65 = load i32, ptr %.val6, align 8, !tbaa !55
  %66 = shl nsw i32 %65, 1
  %.not.i.i.i8 = icmp sgt i32 %66, %61
  %.not.i.i.not.i.i.i9 = icmp sgt i32 %65, %61
  br i1 %.not.i.i.i8, label %79, label %67

67:                                               ; preds = %64
  br i1 %.not.i.i.not.i.i.i9, label %Vec_IntGrow.exit.i.i.i.i14, label %68

68:                                               ; preds = %67
  %69 = getelementptr inbounds nuw i8, ptr %.val6, i64 8
  %70 = load ptr, ptr %69, align 8, !tbaa !32
  %.not9.i.i.i.i.i10 = icmp eq ptr %70, null
  %71 = sext i32 %62 to i64
  %72 = shl nsw i64 %71, 2
  br i1 %.not9.i.i.i.i.i10, label %75, label %73

73:                                               ; preds = %68
  %74 = tail call ptr @realloc(ptr noundef nonnull %70, i64 noundef %72) #23
  br label %77

75:                                               ; preds = %68
  %76 = tail call noalias ptr @malloc(i64 noundef %72) #22
  br label %77

77:                                               ; preds = %75, %73
  %78 = phi ptr [ %74, %73 ], [ %76, %75 ]
  store ptr %78, ptr %69, align 8, !tbaa !32
  br label %Vec_IntGrow.exit.sink.split.i.i.i.i11

79:                                               ; preds = %64
  br i1 %.not.i.i.not.i.i.i9, label %Vec_IntGrow.exit.i.i.i.i14, label %80

80:                                               ; preds = %79
  %81 = getelementptr inbounds nuw i8, ptr %.val6, i64 8
  %82 = load ptr, ptr %81, align 8, !tbaa !32
  %.not9.i21.i.i.i.i20 = icmp eq ptr %82, null
  %83 = sext i32 %66 to i64
  %84 = shl nsw i64 %83, 2
  br i1 %.not9.i21.i.i.i.i20, label %87, label %85

85:                                               ; preds = %80
  %86 = tail call ptr @realloc(ptr noundef nonnull %82, i64 noundef %84) #23
  br label %89

87:                                               ; preds = %80
  %88 = tail call noalias ptr @malloc(i64 noundef %84) #22
  br label %89

89:                                               ; preds = %87, %85
  %90 = phi ptr [ %86, %85 ], [ %88, %87 ]
  store ptr %90, ptr %81, align 8, !tbaa !32
  br label %Vec_IntGrow.exit.sink.split.i.i.i.i11

Vec_IntGrow.exit.sink.split.i.i.i.i11:            ; preds = %89, %77
  %.sink.i.i.i.i12 = phi i32 [ %66, %89 ], [ %62, %77 ]
  store i32 %.sink.i.i.i.i12, ptr %.val6, align 8, !tbaa !55
  %.pre.i.i.i13 = load i32, ptr %63, align 4, !tbaa !29
  br label %Vec_IntGrow.exit.i.i.i.i14

Vec_IntGrow.exit.i.i.i.i14:                       ; preds = %Vec_IntGrow.exit.sink.split.i.i.i.i11, %79, %67
  %91 = phi i32 [ %.pre.i.i.i13, %Vec_IntGrow.exit.sink.split.i.i.i.i11 ], [ %53, %79 ], [ %53, %67 ]
  %.not4.i.i.i = icmp sgt i32 %91, %61
  br i1 %.not4.i.i.i, label %._crit_edge.i.i.i.i17, label %.lr.ph.i.i.i.i15

.lr.ph.i.i.i.i15:                                 ; preds = %Vec_IntGrow.exit.i.i.i.i14
  %92 = getelementptr inbounds nuw i8, ptr %.val6, i64 8
  %93 = load ptr, ptr %92, align 8, !tbaa !32
  %94 = sext i32 %91 to i64
  %95 = shl nsw i64 %94, 2
  %scevgep.i.i.i.i16 = getelementptr i8, ptr %93, i64 %95
  %96 = sub i32 %61, %91
  %97 = zext i32 %96 to i64
  %98 = shl nuw nsw i64 %97, 2
  %99 = add nuw nsw i64 %98, 4
  tail call void @llvm.memset.p0.i64(ptr noundef nonnull align 4 dereferenceable(1) %scevgep.i.i.i.i16, i8 0, i64 %99, i1 false), !tbaa !33
  br label %._crit_edge.i.i.i.i17

._crit_edge.i.i.i.i17:                            ; preds = %.lr.ph.i.i.i.i15, %Vec_IntGrow.exit.i.i.i.i14
  store i32 %62, ptr %63, align 4, !tbaa !29
  br label %Gia_ObjSetLevel.exit

Gia_ObjSetLevel.exit:                             ; preds = %Gia_ObjLevel.exit, %._crit_edge.i.i.i.i17
  %100 = getelementptr i8, ptr %.val6, i64 8
  %.val.i.i.i18 = load ptr, ptr %100, align 8, !tbaa !32
  %sext.i19 = shl i64 %60, 32
  %101 = ashr exact i64 %sext.i19, 30
  %102 = getelementptr inbounds i8, ptr %.val.i.i.i18, i64 %101
  store i32 %57, ptr %102, align 4, !tbaa !33
  ret void
}